; Function Attrs: nounwind uwtable
define ptr @l_Lean_Elab_Tactic_dsimpLocation_x27(ptr noundef %0, ptr noundef %1, ptr noundef %2, ptr noundef %3, ptr noundef %4, ptr noundef %5, ptr noundef %6, ptr noundef %7, ptr noundef %8, ptr noundef %9, ptr noundef %10, ptr noundef %11) local_unnamed_addr #0 {
  %13 = ptrtoint ptr %2 to i64
  %14 = and i64 %13, 1
  %.not.i40 = icmp eq i64 %14, 0
  br i1 %.not.i40, label %18, label %15

15:                                               ; preds = %12
  %16 = lshr i64 %13, 1
  %17 = trunc i64 %16 to i32
  br label %lean_obj_tag.exit

18:                                               ; preds = %12
  %19 = getelementptr i8, ptr %2, i64 4
  %.val.i = load i32, ptr %19, align 4
  %20 = lshr i32 %.val.i, 24
  br label %lean_obj_tag.exit

lean_obj_tag.exit:                                ; preds = %15, %18
  %.0.i = phi i32 [ %17, %15 ], [ %20, %18 ]
  %21 = icmp eq i32 %.0.i, 0
  br i1 %21, label %22, label %32

22:                                               ; preds = %lean_obj_tag.exit
  tail call void @lean_inc_heartbeat() #5
  %23 = tail call noalias ptr @mi_malloc_small(i64 noundef 40) #5
  %24 = icmp eq ptr %23, null
  br i1 %24, label %25, label %lean_alloc_closure.exit

25:                                               ; preds = %22
  tail call void @lean_internal_panic_out_of_memory() #6
  unreachable

lean_alloc_closure.exit:                          ; preds = %22
  %26 = getelementptr inbounds nuw i8, ptr %23, i64 4
  store i32 1, ptr %23, align 4, !tbaa !4
  store i32 -184549336, ptr %26, align 4
  %27 = getelementptr inbounds nuw i8, ptr %23, i64 8
  store ptr @l_Lean_Elab_Tactic_dsimpLocation_x27___lambda__1___boxed, ptr %27, align 8, !tbaa !9
  %28 = getelementptr inbounds nuw i8, ptr %23, i64 16
  store i16 11, ptr %28, align 8, !tbaa !14
  %29 = getelementptr inbounds nuw i8, ptr %23, i64 18
  store i16 2, ptr %29, align 2, !tbaa !14
  %30 = getelementptr inbounds nuw i8, ptr %23, i64 24
  store ptr %0, ptr %30, align 8, !tbaa !9
  %31 = getelementptr inbounds nuw i8, ptr %23, i64 32
  store ptr %1, ptr %31, align 8, !tbaa !9
  br label %66

32:                                               ; preds = %lean_obj_tag.exit
  %33 = getelementptr inbounds nuw i8, ptr %2, i64 8
  %34 = load ptr, ptr %33, align 8, !tbaa !9
  %35 = ptrtoint ptr %34 to i64
  %36 = and i64 %35, 1
  %.not = icmp eq i64 %36, 0
  br i1 %.not, label %37, label %lean_inc.exit

37:                                               ; preds = %32
  %.val.i41 = load i32, ptr %34, align 4, !tbaa !4
  %38 = icmp sgt i32 %.val.i41, 0
  br i1 %38, label %39, label %41, !prof !11

39:                                               ; preds = %37
  %40 = add nuw i32 %.val.i41, 1
  store i32 %40, ptr %34, align 4, !tbaa !4
  br label %lean_inc.exit

41:                                               ; preds = %37
  %.not.i42 = icmp eq i32 %.val.i41, 0
  br i1 %.not.i42, label %lean_inc.exit, label %42

42:                                               ; preds = %41
  tail call void @lean_inc_ref_cold(ptr noundef nonnull %34) #5
  br label %lean_inc.exit

lean_inc.exit:                                    ; preds = %42, %41, %39, %32
  %43 = getelementptr i8, ptr %2, i64 16
  %.val = load i8, ptr %43, align 1, !tbaa !16
  br i1 %.not.i40, label %44, label %lean_dec.exit

44:                                               ; preds = %lean_inc.exit
  %45 = load i32, ptr %2, align 4, !tbaa !4
  %46 = icmp sgt i32 %45, 1
  br i1 %46, label %47, label %49, !prof !11

47:                                               ; preds = %44
  %48 = add nsw i32 %45, -1
  store i32 %48, ptr %2, align 4, !tbaa !4
  br label %lean_dec.exit

49:                                               ; preds = %44
  %.not.i = icmp eq i32 %45, 0
  br i1 %.not.i, label %lean_dec.exit, label %50

50:                                               ; preds = %49
  tail call void @lean_dec_ref_cold(ptr noundef nonnull %2) #5
  br label %lean_dec.exit

lean_dec.exit:                                    ; preds = %50, %49, %47, %lean_inc.exit
  tail call void @lean_inc_heartbeat() #5
  %51 = tail call noalias ptr @mi_malloc_small(i64 noundef 56) #5
  %52 = icmp eq ptr %51, null
  br i1 %52, label %53, label %lean_alloc_closure.exit43

53:                                               ; preds = %lean_dec.exit
  tail call void @lean_internal_panic_out_of_memory() #6
  unreachable

lean_alloc_closure.exit43:                        ; preds = %lean_dec.exit
  %54 = zext i8 %.val to i64
  %55 = shl nuw nsw i64 %54, 1
  %56 = or disjoint i64 %55, 1
  %57 = inttoptr i64 %56 to ptr
  %58 = getelementptr inbounds nuw i8, ptr %51, i64 4
  store i32 1, ptr %51, align 4, !tbaa !4
  store i32 -184549320, ptr %58, align 4
  %59 = getelementptr inbounds nuw i8, ptr %51, i64 8
  store ptr @l_Lean_Elab_Tactic_dsimpLocation_x27___lambda__2___boxed, ptr %59, align 8, !tbaa !9
  %60 = getelementptr inbounds nuw i8, ptr %51, i64 16
  store i16 13, ptr %60, align 8, !tbaa !14
  %61 = getelementptr inbounds nuw i8, ptr %51, i64 18
  store i16 4, ptr %61, align 2, !tbaa !14
  %62 = getelementptr inbounds nuw i8, ptr %51, i64 24
  store ptr %34, ptr %62, align 8, !tbaa !9
  %63 = getelementptr inbounds nuw i8, ptr %51, i64 32
  store ptr %0, ptr %63, align 8, !tbaa !9
  %64 = getelementptr inbounds nuw i8, ptr %51, i64 40
  store ptr %1, ptr %64, align 8, !tbaa !9
  %65 = getelementptr inbounds nuw i8, ptr %51, i64 48
  store ptr %57, ptr %65, align 8, !tbaa !9
  br label %66

66:                                               ; preds = %lean_alloc_closure.exit43, %lean_alloc_closure.exit
  %.sink = phi ptr [ %51, %lean_alloc_closure.exit43 ], [ %23, %lean_alloc_closure.exit ]
  %67 = tail call ptr @l_Lean_Elab_Tactic_withMainContext___rarg(ptr noundef nonnull %.sink, ptr noundef %3, ptr noundef %4, ptr noundef %5, ptr noundef %6, ptr noundef %7, ptr noundef %8, ptr noundef %9, ptr noundef %10, ptr noundef %11) #5
  ret ptr %67
}